target datalayout = "e-m:e-p270:32:32-p271:32:32-p272:64:64-i64:64-i128:128-f80:128-n8:16:32:64-S128"
target triple = "x86_64-pc-linux-gnu"

%struct.UriParserStateStructA = type { ptr, i32, ptr, ptr }

; Function Attrs: inlinehint nounwind uwtable
define internal void @uriStopSyntaxA(ptr noundef %0, ptr noundef %1, ptr noundef %2) #4 {
  %4 = alloca ptr, align 8
  %5 = alloca ptr, align 8
  %6 = alloca ptr, align 8
  store ptr %0, ptr %4, align 8, !tbaa !3
  store ptr %1, ptr %5, align 8, !tbaa !8
  store ptr %2, ptr %6, align 8, !tbaa !10
  %7 = load ptr, ptr %4, align 8, !tbaa !3
  %8 = getelementptr inbounds nuw %struct.UriParserStateStructA, ptr %7, i32 0, i32 0
  %9 = load ptr, ptr %8, align 8, !tbaa !12
  %10 = load ptr, ptr %6, align 8, !tbaa !10
  %11 = call i32 @uriFreeUriMembersMmA(ptr noundef %9, ptr noundef %10)
  %12 = load ptr, ptr %5, align 8, !tbaa !8
  %13 = load ptr, ptr %4, align 8, !tbaa !3
  %14 = getelementptr inbounds nuw %struct.UriParserStateStructA, ptr %13, i32 0, i32 2
  store ptr %12, ptr %14, align 8, !tbaa !17
  %15 = load ptr, ptr %4, align 8, !tbaa !3
  %16 = getelementptr inbounds nuw %struct.UriParserStateStructA, ptr %15, i32 0, i32 1
  store i32 1, ptr %16, align 8, !tbaa !18
  ret void
}

; Function Attrs: nounwind uwtable
define internal ptr @uriParsePctSubUnresA(ptr noundef %0, ptr noundef %1, ptr noundef %2, ptr noundef %3) #0 {
  %5 = alloca ptr, align 8
  %6 = alloca ptr, align 8
  %7 = alloca ptr, align 8
  %8 = alloca ptr, align 8
  %9 = alloca ptr, align 8
  store ptr %0, ptr %6, align 8, !tbaa !3
  store ptr %1, ptr %7, align 8, !tbaa !8
  store ptr %2, ptr %8, align 8, !tbaa !8
  store ptr %3, ptr %9, align 8, !tbaa !10
  %10 = load ptr, ptr %7, align 8, !tbaa !8
  %11 = load ptr, ptr %8, align 8, !tbaa !8
  %12 = icmp uge ptr %10, %11
  br i1 %12, label %13, label %17

13:                                               ; preds = %4
  %14 = load ptr, ptr %6, align 8, !tbaa !3
  %15 = load ptr, ptr %8, align 8, !tbaa !8
  %16 = load ptr, ptr %9, align 8, !tbaa !10
  call void @uriStopSyntaxA(ptr noundef %14, ptr noundef %15, ptr noundef %16)
  store ptr null, ptr %5, align 8
  br label %34

17:                                               ; preds = %4
  %18 = load ptr, ptr %7, align 8, !tbaa !8
  %19 = load i8, ptr %18, align 1, !tbaa !57
  %20 = sext i8 %19 to i32
  switch i32 %20, label %30 [
    i32 37, label %21
    i32 33, label %27
    i32 36, label %27
    i32 38, label %27
    i32 40, label %27
    i32 41, label %27
    i32 42, label %27
    i32 44, label %27
    i32 59, label %27
    i32 39, label %27
    i32 43, label %27
    i32 61, label %27
    i32 45, label %27
    i32 46, label %27
    i32 95, label %27
    i32 126, label %27
    i32 48, label %27
    i32 49, label %27
    i32 50, label %27
    i32 51, label %27
    i32 52, label %27
    i32 53, label %27
    i32 54, label %27
    i32 55, label %27
    i32 56, label %27
    i32 57, label %27
    i32 65, label %27
    i32 66, label %27
    i32 67, label %27
    i32 68, label %27
    i32 69, label %27
    i32 70, label %27
    i32 97, label %27
    i32 98, label %27
    i32 99, label %27
    i32 100, label %27
    i32 101, label %27
    i32 102, label %27
    i32 103, label %27
    i32 71, label %27
    i32 104, label %27
    i32 72, label %27
    i32 105, label %27
    i32 73, label %27
    i32 106, label %27
    i32 74, label %27
    i32 107, label %27
    i32 75, label %27
    i32 108, label %27
    i32 76, label %27
    i32 109, label %27
    i32 77, label %27
    i32 110, label %27
    i32 78, label %27
    i32 111, label %27
    i32 79, label %27
    i32 112, label %27
    i32 80, label %27
    i32 113, label %27
    i32 81, label %27
    i32 114, label %27
    i32 82, label %27
    i32 115, label %27
    i32 83, label %27
    i32 116, label %27
    i32 84, label %27
    i32 117, label %27
    i32 85, label %27
    i32 118, label %27
    i32 86, label %27
    i32 119, label %27
    i32 87, label %27
    i32 120, label %27
    i32 88, label %27
    i32 121, label %27
    i32 89, label %27
    i32 122, label %27
    i32 90, label %27
  ]

21:                                               ; preds = %17
  %22 = load ptr, ptr %6, align 8, !tbaa !3
  %23 = load ptr, ptr %7, align 8, !tbaa !8
  %24 = load ptr, ptr %8, align 8, !tbaa !8
  %25 = load ptr, ptr %9, align 8, !tbaa !10
  %26 = call ptr @uriParsePctEncodedA(ptr noundef %22, ptr noundef %23, ptr noundef %24, ptr noundef %25)
  store ptr %26, ptr %5, align 8
  br label %34

27:                                               ; preds = %17, %17, %17, %17, %17, %17, %17, %17, %17, %17, %17, %17, %17, %17, %17, %17, %17, %17, %17, %17, %17, %17, %17, %17, %17, %17, %17, %17, %17, %17, %17, %17, %17, %17, %17, %17, %17, %17, %17, %17, %17, %17, %17, %17, %17, %17, %17, %17, %17, %17, %17, %17, %17, %17, %17, %17, %17, %17, %17, %17, %17, %17, %17, %17, %17, %17, %17, %17, %17, %17, %17, %17, %17, %17, %17, %17, %17
  %28 = load ptr, ptr %7, align 8, !tbaa !8
  %29 = getelementptr inbounds i8, ptr %28, i64 1
  store ptr %29, ptr %5, align 8
  br label %34

30:                                               ; preds = %17
  %31 = load ptr, ptr %6, align 8, !tbaa !3
  %32 = load ptr, ptr %7, align 8, !tbaa !8
  %33 = load ptr, ptr %9, align 8, !tbaa !10
  call void @uriStopSyntaxA(ptr noundef %31, ptr noundef %32, ptr noundef %33)
  store ptr null, ptr %5, align 8
  br label %34

34:                                               ; preds = %30, %27, %21, %13
  %35 = load ptr, ptr %5, align 8
  ret ptr %35
}